target datalayout = "e-m:e-p270:32:32-p271:32:32-p272:64:64-i64:64-i128:128-f80:128-n8:16:32:64-S128"
target triple = "x86_64-pc-linux-gnu"

%struct.pm_lex_mode = type { i32, %union.anon, ptr }
%union.anon = type { %struct.anon.3 }
%struct.anon.3 = type { %struct.pm_heredoc_lex_mode_t, ptr, ptr, i8 }
%struct.pm_heredoc_lex_mode_t = type { ptr, i64, i32, i32 }
%struct.pm_parser = type { i32, i32, i32, i32, i32, i32, i32, %struct.anon, ptr, ptr, %struct.pm_token_t, %struct.pm_token_t, ptr, ptr, %struct.pm_list_t, %struct.pm_list_t, %struct.pm_location_t, %struct.pm_list_t, %struct.pm_list_t, ptr, ptr, ptr, ptr, ptr, ptr, ptr, %struct.pm_string_t, %struct.pm_constant_pool_t, %struct.pm_newline_list_t, i16, %struct.pm_string_t, i32, ptr, ptr, i32, i8, i8, i8, i8, i8, i8, i8, i8, i8, i8, i8, i8, i8 }
%struct.anon = type { ptr, [4 x %struct.pm_lex_mode], i64 }
%struct.pm_token_t = type { i32, ptr, ptr }
%struct.pm_location_t = type { ptr, ptr }
%struct.pm_list_t = type { i64, ptr, ptr }
%struct.pm_constant_pool_t = type { ptr, ptr, i32, i32 }
%struct.pm_newline_list_t = type { ptr, i64, i64, ptr }
%struct.pm_string_t = type { ptr, i64, i32 }
%struct.pm_node = type { i16, i16, i32, %struct.pm_location_t }
%struct.pm_call_node = type { %struct.pm_node, ptr, %struct.pm_location_t, i32, %struct.pm_location_t, %struct.pm_location_t, ptr, %struct.pm_location_t, ptr }
%struct.pm_call_target_node = type { %struct.pm_node, ptr, %struct.pm_location_t, i32, %struct.pm_location_t }

@stderr = external global ptr, align 8
@.str.94 = private unnamed_addr constant [29 x i8] c"Failed to allocate %d bytes\0A\00", align 1

; Function Attrs: inlinehint nounwind sspstrong uwtable
define internal ptr @pm_node_alloc(ptr noundef %0, i64 noundef %1) #7 {
  %3 = alloca ptr, align 8
  %4 = alloca i64, align 8
  %5 = alloca ptr, align 8
  store ptr %0, ptr %3, align 8, !tbaa !7
  store i64 %1, ptr %4, align 8, !tbaa !14
  call void @llvm.lifetime.start.p0(i64 8, ptr %5) #15
  %6 = load i64, ptr %4, align 8, !tbaa !14
  %7 = call noalias ptr @calloc(i64 noundef 1, i64 noundef %6) #18
  store ptr %7, ptr %5, align 8, !tbaa !57
  %8 = load ptr, ptr %5, align 8, !tbaa !57
  %9 = icmp eq ptr %8, null
  br i1 %9, label %10, label %15

10:                                               ; preds = %2
  %11 = load ptr, ptr @stderr, align 8, !tbaa !452
  %12 = load i64, ptr %4, align 8, !tbaa !14
  %13 = trunc i64 %12 to i32
  %14 = call i32 (ptr, i32, ptr, ...) @__fprintf_chk(ptr noundef %11, i32 noundef 1, ptr noundef @.str.94, i32 noundef %13)
  call void @abort() #19
  unreachable

15:                                               ; preds = %2
  %16 = load ptr, ptr %5, align 8, !tbaa !57
  call void @llvm.lifetime.end.p0(i64 8, ptr %5) #15
  ret ptr %16
}

; Function Attrs: nounwind sspstrong uwtable
define internal ptr @pm_call_target_node_create(ptr noundef %0, ptr noundef %1) #0 {
  %3 = alloca ptr, align 8
  %4 = alloca ptr, align 8
  %5 = alloca ptr, align 8
  %6 = alloca %struct.pm_call_target_node, align 8
  store ptr %0, ptr %3, align 8, !tbaa !7
  store ptr %1, ptr %4, align 8, !tbaa !210
  call void @llvm.lifetime.start.p0(i64 8, ptr %5) #15
  %7 = load ptr, ptr %3, align 8, !tbaa !7
  %8 = call ptr @pm_node_alloc(ptr noundef %7, i64 noundef 72)
  store ptr %8, ptr %5, align 8, !tbaa !980
  %9 = load ptr, ptr %5, align 8, !tbaa !980
  %10 = getelementptr inbounds nuw %struct.pm_call_target_node, ptr %6, i32 0, i32 0
  %11 = getelementptr inbounds nuw %struct.pm_node, ptr %10, i32 0, i32 0
  store i16 22, ptr %11, align 8, !tbaa !206
  %12 = getelementptr inbounds nuw %struct.pm_node, ptr %10, i32 0, i32 1
  %13 = load ptr, ptr %4, align 8, !tbaa !210
  %14 = getelementptr inbounds nuw %struct.pm_call_node, ptr %13, i32 0, i32 0
  %15 = getelementptr inbounds nuw %struct.pm_node, ptr %14, i32 0, i32 1
  %16 = load i16, ptr %15, align 2, !tbaa !982
  store i16 %16, ptr %12, align 2, !tbaa !222
  %17 = getelementptr inbounds nuw %struct.pm_node, ptr %10, i32 0, i32 2
  %18 = load ptr, ptr %3, align 8, !tbaa !7
  %19 = getelementptr inbounds nuw %struct.pm_parser, ptr %18, i32 0, i32 0
  %20 = load i32, ptr %19, align 8, !tbaa !238
  %21 = add i32 %20, 1
  store i32 %21, ptr %19, align 8, !tbaa !238
  store i32 %21, ptr %17, align 4, !tbaa !239
  %22 = getelementptr inbounds nuw %struct.pm_node, ptr %10, i32 0, i32 3
  %23 = load ptr, ptr %4, align 8, !tbaa !210
  %24 = getelementptr inbounds nuw %struct.pm_call_node, ptr %23, i32 0, i32 0
  %25 = getelementptr inbounds nuw %struct.pm_node, ptr %24, i32 0, i32 3
  call void @llvm.memcpy.p0.p0.i64(ptr align 8 %22, ptr align 8 %25, i64 16, i1 false), !tbaa.struct !241
  %26 = getelementptr inbounds nuw %struct.pm_call_target_node, ptr %6, i32 0, i32 1
  %27 = load ptr, ptr %4, align 8, !tbaa !210
  %28 = getelementptr inbounds nuw %struct.pm_call_node, ptr %27, i32 0, i32 1
  %29 = load ptr, ptr %28, align 8, !tbaa !731
  store ptr %29, ptr %26, align 8, !tbaa !983
  %30 = getelementptr inbounds nuw %struct.pm_call_target_node, ptr %6, i32 0, i32 2
  %31 = load ptr, ptr %4, align 8, !tbaa !210
  %32 = getelementptr inbounds nuw %struct.pm_call_node, ptr %31, i32 0, i32 2
  call void @llvm.memcpy.p0.p0.i64(ptr align 8 %30, ptr align 8 %32, i64 16, i1 false), !tbaa.struct !241
  %33 = getelementptr inbounds nuw %struct.pm_call_target_node, ptr %6, i32 0, i32 3
  %34 = load ptr, ptr %4, align 8, !tbaa !210
  %35 = getelementptr inbounds nuw %struct.pm_call_node, ptr %34, i32 0, i32 3
  %36 = load i32, ptr %35, align 8, !tbaa !216
  store i32 %36, ptr %33, align 8, !tbaa !985
  %37 = getelementptr i8, ptr %6, i64 52
  call void @llvm.memset.p0.i64(ptr align 4 %37, i8 0, i64 4, i1 false)
  %38 = getelementptr inbounds nuw %struct.pm_call_target_node, ptr %6, i32 0, i32 4
  %39 = load ptr, ptr %4, align 8, !tbaa !210
  %40 = getelementptr inbounds nuw %struct.pm_call_node, ptr %39, i32 0, i32 4
  call void @llvm.memcpy.p0.p0.i64(ptr align 8 %38, ptr align 8 %40, i64 16, i1 false), !tbaa.struct !241
  call void @llvm.memcpy.p0.p0.i64(ptr align 8 %9, ptr align 8 %6, i64 72, i1 false), !tbaa.struct !986
  %41 = load ptr, ptr %4, align 8, !tbaa !210
  call void @free(ptr noundef %41) #15
  %42 = load ptr, ptr %5, align 8, !tbaa !980
  call void @llvm.lifetime.end.p0(i64 8, ptr %5) #15
  ret ptr %42
}