; Function Attrs: nounwind sspstrong uwtable
define internal fastcc noalias nonnull ptr @pm_call_target_node_create(ptr noundef captures(none) %0, ptr noundef captures(none) %1) unnamed_addr #1 {
  %3 = tail call noalias dereferenceable_or_null(72) ptr @calloc(i64 noundef 1, i64 noundef 72) #34
  %4 = icmp eq ptr %3, null
  br i1 %4, label %5, label %pm_node_alloc.exit

5:                                                ; preds = %2
  %6 = load ptr, ptr @stderr, align 8, !tbaa !105
  %7 = tail call i32 (ptr, i32, ptr, ...) @__fprintf_chk(ptr noundef %6, i32 noundef 1, ptr noundef nonnull @.str.94, i32 noundef 72) #31
  tail call void @abort() #35
  unreachable

pm_node_alloc.exit:                               ; preds = %2
  %8 = getelementptr inbounds nuw i8, ptr %1, i64 2
  %9 = load i16, ptr %8, align 2, !tbaa !651
  %10 = load i32, ptr %0, align 8, !tbaa !107
  %11 = add i32 %10, 1
  store i32 %11, ptr %0, align 8, !tbaa !107
  %12 = getelementptr inbounds nuw i8, ptr %1, i64 8
  %.sroa.4.0..sroa_idx = getelementptr inbounds nuw i8, ptr %3, i64 8
  tail call void @llvm.memcpy.p0.p0.i64(ptr noundef nonnull align 8 dereferenceable(16) %.sroa.4.0..sroa_idx, ptr noundef nonnull align 8 dereferenceable(16) %12, i64 16, i1 false)
  %13 = getelementptr inbounds nuw i8, ptr %1, i64 24
  %14 = load ptr, ptr %13, align 8, !tbaa !123
  %15 = getelementptr inbounds nuw i8, ptr %1, i64 32
  %.sroa.6.0..sroa_idx = getelementptr inbounds nuw i8, ptr %3, i64 32
  tail call void @llvm.memcpy.p0.p0.i64(ptr noundef nonnull align 8 dereferenceable(16) %.sroa.6.0..sroa_idx, ptr noundef nonnull align 8 dereferenceable(16) %15, i64 16, i1 false)
  %16 = getelementptr inbounds nuw i8, ptr %1, i64 48
  %17 = load i32, ptr %16, align 8, !tbaa !118
  %18 = getelementptr inbounds nuw i8, ptr %1, i64 56
  %.sroa.9.0..sroa_idx = getelementptr inbounds nuw i8, ptr %3, i64 56
  tail call void @llvm.memcpy.p0.p0.i64(ptr noundef nonnull align 8 dereferenceable(16) %.sroa.9.0..sroa_idx, ptr noundef nonnull align 8 dereferenceable(16) %18, i64 16, i1 false)
  store i16 22, ptr %3, align 8, !tbaa !108
  %.sroa.2.0..sroa_idx = getelementptr inbounds nuw i8, ptr %3, i64 2
  store i16 %9, ptr %.sroa.2.0..sroa_idx, align 2, !tbaa !108
  %.sroa.3.0..sroa_idx = getelementptr inbounds nuw i8, ptr %3, i64 4
  store i32 %11, ptr %.sroa.3.0..sroa_idx, align 4, !tbaa !7
  %.sroa.5.0..sroa_idx = getelementptr inbounds nuw i8, ptr %3, i64 24
  store ptr %14, ptr %.sroa.5.0..sroa_idx, align 8, !tbaa !103
  %.sroa.7.0..sroa_idx = getelementptr inbounds nuw i8, ptr %3, i64 48
  store i32 %17, ptr %.sroa.7.0..sroa_idx, align 8, !tbaa !7
  tail call void @free(ptr noundef %1) #31
  ret ptr %3
}